target datalayout = "e-m:e-p270:32:32-p271:32:32-p272:64:64-i64:64-i128:128-f80:128-n8:16:32:64-S128"
target triple = "x86_64-pc-linux-gnu"

%struct.ObjectAddress = type { i32, i32, i32 }
%struct.CreateOpFamilyStmt = type { i32, ptr, ptr }

@.str.1 = private unnamed_addr constant [14 x i8] c"opclasscmds.c\00", align 1
@.str.11 = private unnamed_addr constant [47 x i8] c"must be superuser to create an operator family\00", align 1
@__func__.DefineOpFamily = private unnamed_addr constant [15 x i8] c"DefineOpFamily\00", align 1

; Function Attrs: nounwind uwtable
define dso_local { i64, i32 } @DefineOpFamily(ptr noundef %0) #0 {
  %2 = alloca %struct.ObjectAddress, align 4
  %3 = alloca ptr, align 8
  %4 = alloca ptr, align 8
  %5 = alloca i32, align 4
  %6 = alloca i32, align 4
  %7 = alloca i32, align 4
  %8 = alloca { i64, i32 }, align 8
  %9 = alloca { i64, i32 }, align 8
  store ptr %0, ptr %3, align 8
  call void @llvm.lifetime.start.p0(i64 8, ptr %4) #7
  call void @llvm.lifetime.start.p0(i64 4, ptr %5) #7
  call void @llvm.lifetime.start.p0(i64 4, ptr %6) #7
  call void @llvm.lifetime.start.p0(i64 4, ptr %7) #7
  %10 = load ptr, ptr %3, align 8
  %11 = getelementptr inbounds nuw %struct.CreateOpFamilyStmt, ptr %10, i32 0, i32 1
  %12 = load ptr, ptr %11, align 8
  %13 = call i32 @QualifiedNameGetCreationNamespace(ptr noundef %12, ptr noundef %4)
  store i32 %13, ptr %6, align 4
  %14 = load i32, ptr %6, align 4
  %15 = call i32 @GetUserId()
  %16 = call i32 @object_aclcheck(i32 noundef 2615, i32 noundef %14, i32 noundef %15, i64 noundef 512)
  store i32 %16, ptr %7, align 4
  %17 = load i32, ptr %7, align 4
  %18 = icmp ne i32 %17, 0
  br i1 %18, label %19, label %23

19:                                               ; preds = %1
  %20 = load i32, ptr %7, align 4
  %21 = load i32, ptr %6, align 4
  %22 = call ptr @get_namespace_name(i32 noundef %21)
  call void @aclcheck_error(i32 noundef %20, i32 noundef 36, ptr noundef %22)
  br label %23

23:                                               ; preds = %19, %1
  %24 = load ptr, ptr %3, align 8
  %25 = getelementptr inbounds nuw %struct.CreateOpFamilyStmt, ptr %24, i32 0, i32 2
  %26 = load ptr, ptr %25, align 8
  %27 = call i32 @get_index_am_oid(ptr noundef %26, i1 noundef zeroext false)
  store i32 %27, ptr %5, align 4
  %28 = call zeroext i1 @superuser()
  br i1 %28, label %41, label %29

29:                                               ; preds = %23
  br label %30

30:                                               ; preds = %29
  br i1 true, label %31, label %33

31:                                               ; preds = %30
  %32 = call zeroext i1 @errstart_cold(i32 noundef 21, ptr noundef null) #8
  br i1 %32, label %35, label %38

33:                                               ; preds = %30
  %34 = call zeroext i1 @errstart(i32 noundef 21, ptr noundef null)
  br i1 %34, label %35, label %38

35:                                               ; preds = %33, %31
  %36 = call i32 @errcode(i32 noundef 16797828)
  %37 = call i32 (ptr, ...) @errmsg(ptr noundef @.str.11)
  call void @errfinish(ptr noundef @.str.1, i32 noundef 801, ptr noundef @__func__.DefineOpFamily)
  br label %38

38:                                               ; preds = %35, %33, %31
  unreachable

39:                                               ; No predecessors!
  br label %40

40:                                               ; preds = %39
  br label %41

41:                                               ; preds = %40, %23
  %42 = load ptr, ptr %3, align 8
  %43 = load ptr, ptr %4, align 8
  %44 = load i32, ptr %6, align 4
  %45 = load i32, ptr %5, align 4
  %46 = call { i64, i32 } @CreateOpFamily(ptr noundef %42, ptr noundef %43, i32 noundef %44, i32 noundef %45)
  store { i64, i32 } %46, ptr %8, align 8
  call void @llvm.memcpy.p0.p0.i64(ptr align 4 %2, ptr align 8 %8, i64 12, i1 false)
  call void @llvm.lifetime.end.p0(i64 4, ptr %7) #7
  call void @llvm.lifetime.end.p0(i64 4, ptr %6) #7
  call void @llvm.lifetime.end.p0(i64 4, ptr %5) #7
  call void @llvm.lifetime.end.p0(i64 8, ptr %4) #7
  call void @llvm.memcpy.p0.p0.i64(ptr align 8 %9, ptr align 4 %2, i64 12, i1 false)
  %47 = load { i64, i32 }, ptr %9, align 8
  ret { i64, i32 } %47
}