; Function Attrs: nounwind uwtable
define dso_local { i64, i32 } @DefineOpFamily(ptr noundef %0) local_unnamed_addr #0 {
  %2 = alloca ptr, align 8
  call void @llvm.lifetime.start.p0(i64 8, ptr nonnull %2) #6
  %3 = getelementptr inbounds nuw i8, ptr %0, i64 8
  %4 = load ptr, ptr %3, align 8
  %5 = call i32 @QualifiedNameGetCreationNamespace(ptr noundef %4, ptr noundef nonnull %2) #6
  %6 = call i32 @GetUserId() #6
  %7 = call i32 @object_aclcheck(i32 noundef 2615, i32 noundef %5, i32 noundef %6, i64 noundef 512) #6
  %.not = icmp eq i32 %7, 0
  br i1 %.not, label %10, label %8

8:                                                ; preds = %1
  %9 = call ptr @get_namespace_name(i32 noundef %5) #6
  call void @aclcheck_error(i32 noundef %7, i32 noundef 36, ptr noundef %9) #6
  br label %10

10:                                               ; preds = %8, %1
  %11 = getelementptr inbounds nuw i8, ptr %0, i64 16
  %12 = load ptr, ptr %11, align 8
  %13 = call i32 @get_index_am_oid(ptr noundef %12, i1 noundef zeroext false) #6
  %14 = call zeroext i1 @superuser() #6
  br i1 %14, label %19, label %15

15:                                               ; preds = %10
  %16 = call zeroext i1 @errstart_cold(i32 noundef 21, ptr noundef null) #7
  call void @llvm.assume(i1 %16)
  %17 = call i32 @errcode(i32 noundef 16797828) #6
  %18 = call i32 (ptr, ...) @errmsg(ptr noundef nonnull @.str.11) #6
  call void @errfinish(ptr noundef nonnull @.str.1, i32 noundef 801, ptr noundef nonnull @__func__.DefineOpFamily) #6
  unreachable

19:                                               ; preds = %10
  %20 = load ptr, ptr %2, align 8
  %21 = call fastcc { i64, i32 } @CreateOpFamily(ptr noundef nonnull %0, ptr noundef %20, i32 noundef %5, i32 noundef %13)
  call void @llvm.lifetime.end.p0(i64 8, ptr nonnull %2) #6
  ret { i64, i32 } %21
}